target datalayout = "e-m:e-p270:32:32-p271:32:32-p272:64:64-i64:64-i128:128-f80:128-n8:16:32:64-S128"
target triple = "x86_64-pc-linux-gnu"

%struct.X509_POLICY_NODE_st = type { ptr, ptr, i32 }
%struct.X509_POLICY_DATA_st = type { i32, ptr, ptr, ptr }

@.str = private unnamed_addr constant [34 x i8] c"../openssl/crypto/x509/pcy_tree.c\00", align 1

; Function Attrs: nounwind uwtable
define internal void @exnode_free(ptr noundef %0) #0 {
  %2 = alloca ptr, align 8
  store ptr %0, ptr %2, align 8, !tbaa !31
  %3 = load ptr, ptr %2, align 8, !tbaa !31
  %4 = getelementptr inbounds nuw %struct.X509_POLICY_NODE_st, ptr %3, i32 0, i32 0
  %5 = load ptr, ptr %4, align 8, !tbaa !32
  %6 = icmp ne ptr %5, null
  br i1 %6, label %7, label %17

7:                                                ; preds = %1
  %8 = load ptr, ptr %2, align 8, !tbaa !31
  %9 = getelementptr inbounds nuw %struct.X509_POLICY_NODE_st, ptr %8, i32 0, i32 0
  %10 = load ptr, ptr %9, align 8, !tbaa !32
  %11 = getelementptr inbounds nuw %struct.X509_POLICY_DATA_st, ptr %10, i32 0, i32 0
  %12 = load i32, ptr %11, align 8, !tbaa !35
  %13 = and i32 %12, 8
  %14 = icmp ne i32 %13, 0
  br i1 %14, label %15, label %17

15:                                               ; preds = %7
  %16 = load ptr, ptr %2, align 8, !tbaa !31
  call void @CRYPTO_free(ptr noundef %16, ptr noundef @.str, i32 noundef 625)
  br label %17

17:                                               ; preds = %15, %7, %1
  ret void
}