; Function Attrs: nounwind uwtable
define internal void @exnode_free(ptr noundef %0) #0 {
  %2 = load ptr, ptr %0, align 8, !tbaa !25
  %.not = icmp eq ptr %2, null
  br i1 %.not, label %7, label %3

3:                                                ; preds = %1
  %4 = load i32, ptr %2, align 8, !tbaa !28
  %5 = and i32 %4, 8
  %.not3 = icmp eq i32 %5, 0
  br i1 %.not3, label %7, label %6

6:                                                ; preds = %3
  tail call void @CRYPTO_free(ptr noundef nonnull %0, ptr noundef nonnull @.str, i32 noundef 625) #3
  br label %7

7:                                                ; preds = %6, %3, %1
  ret void
}